; Function Attrs: null_pointer_is_valid sspstrong uwtable
define internal noundef i32 @dissect_bitcoin_msg_getheaders(ptr noundef %0, ptr readnone captures(none) %1, ptr noundef %2, ptr readnone captures(none) %3) #0 {
  %5 = load i32, ptr @hf_bitcoin_msg_getheaders, align 4
  %6 = tail call ptr @proto_tree_add_item(ptr noundef %2, i32 noundef %5, ptr noundef %0, i32 noundef 0, i32 noundef -1, i32 noundef 0)
  %7 = load i32, ptr @ett_bitcoin_msg, align 4
  %8 = tail call ptr @proto_item_add_subtree(ptr noundef %6, i32 noundef %7)
  %9 = load i32, ptr @hf_msg_headers_version, align 4
  %10 = tail call ptr @proto_tree_add_item(ptr noundef %8, i32 noundef %9, ptr noundef %0, i32 noundef 0, i32 noundef 4, i32 noundef -2147483648)
  %11 = tail call zeroext i8 @tvb_get_uint8(ptr noundef %0, i32 noundef 4)
  %12 = icmp ult i8 %11, -3
  br i1 %12, label %14, label %13

13:                                               ; preds = %4
  switch i8 %11, label %28 [
    i8 -3, label %18
    i8 -2, label %23
  ]

14:                                               ; preds = %4
  %15 = zext i8 %11 to i64
  %16 = load i32, ptr @hf_msg_getheaders_count8, align 4
  %17 = tail call ptr @proto_tree_add_item(ptr noundef %8, i32 noundef %16, ptr noundef %0, i32 noundef 4, i32 noundef 1, i32 noundef -2147483648)
  br label %add_varint_item.exit

18:                                               ; preds = %13
  %19 = tail call zeroext i16 @tvb_get_letohs(ptr noundef %0, i32 noundef 5)
  %20 = zext i16 %19 to i64
  %21 = load i32, ptr @hf_msg_getheaders_count16, align 4
  %22 = tail call ptr @proto_tree_add_item(ptr noundef %8, i32 noundef %21, ptr noundef %0, i32 noundef 5, i32 noundef 2, i32 noundef -2147483648)
  br label %add_varint_item.exit

23:                                               ; preds = %13
  %24 = tail call i32 @tvb_get_letohl(ptr noundef %0, i32 noundef 5)
  %25 = zext i32 %24 to i64
  %26 = load i32, ptr @hf_msg_getheaders_count32, align 4
  %27 = tail call ptr @proto_tree_add_item(ptr noundef %8, i32 noundef %26, ptr noundef %0, i32 noundef 5, i32 noundef 4, i32 noundef -2147483648)
  br label %add_varint_item.exit

28:                                               ; preds = %13
  %29 = tail call i64 @tvb_get_letoh64(ptr noundef %0, i32 noundef 5)
  %30 = load i32, ptr @hf_msg_getheaders_count64, align 4
  %31 = tail call ptr @proto_tree_add_item(ptr noundef %8, i32 noundef %30, ptr noundef %0, i32 noundef 5, i32 noundef 8, i32 noundef -2147483648)
  br label %add_varint_item.exit

add_varint_item.exit:                             ; preds = %14, %18, %23, %28
  %.sink.i32 = phi i64 [ %15, %14 ], [ %20, %18 ], [ %25, %23 ], [ %29, %28 ]
  %.02630 = phi i32 [ 5, %14 ], [ 7, %18 ], [ 9, %23 ], [ 13, %28 ]
  %.not43 = icmp eq i64 %.sink.i32, 0
  br i1 %.not43, label %._crit_edge, label %.lr.ph

.lr.ph:                                           ; preds = %add_varint_item.exit, %.lr.ph
  %.045 = phi i32 [ %34, %.lr.ph ], [ %.02630, %add_varint_item.exit ]
  %.02544 = phi i64 [ %35, %.lr.ph ], [ %.sink.i32, %add_varint_item.exit ]
  %32 = load i32, ptr @hf_msg_getheaders_start, align 4
  %33 = tail call ptr @proto_tree_add_item(ptr noundef %8, i32 noundef %32, ptr noundef %0, i32 noundef %.045, i32 noundef 32, i32 noundef 0)
  %34 = add i32 %.045, 32
  %35 = add i64 %.02544, -1
  %.not = icmp eq i64 %35, 0
  br i1 %.not, label %._crit_edge, label %.lr.ph, !llvm.loop !14

._crit_edge:                                      ; preds = %.lr.ph, %add_varint_item.exit
  %.0.lcssa = phi i32 [ %.02630, %add_varint_item.exit ], [ %34, %.lr.ph ]
  %36 = load i32, ptr @hf_msg_getheaders_stop, align 4
  %37 = tail call ptr @proto_tree_add_item(ptr noundef %8, i32 noundef %36, ptr noundef %0, i32 noundef %.0.lcssa, i32 noundef 32, i32 noundef 0)
  %38 = add i32 %.0.lcssa, 32
  ret i32 %38
}